target datalayout = "e-m:e-p270:32:32-p271:32:32-p272:64:64-i64:64-i128:128-f80:128-n8:16:32:64-S128"
target triple = "x86_64-pc-linux-gnu"

@hf_aprs_dhm = internal global i32 0, align 4
@hf_aprs_hms = internal global i32 0, align 4
@hf_aprs_mdhm = internal global i32 0, align 4
@hf_aprs_tz = internal global i32 0, align 4
@.str.226 = private unnamed_addr constant [5 x i8] c"zulu\00", align 1
@g_ascii_table = external constant ptr, align 8
@.str.227 = private unnamed_addr constant [6 x i8] c"local\00", align 1
@.str.228 = private unnamed_addr constant [8 x i8] c"unknown\00", align 1

; Function Attrs: null_pointer_is_valid sspstrong uwtable
define internal i32 @aprs_timestamp(ptr noundef %0, ptr noundef %1, i32 noundef %2) #0 {
  %4 = alloca ptr, align 8
  %5 = alloca ptr, align 8
  %6 = alloca i32, align 4
  %7 = alloca i32, align 4
  %8 = alloca ptr, align 8
  %9 = alloca i8, align 1
  store ptr %0, ptr %4, align 8
  store ptr %1, ptr %5, align 8
  store i32 %2, ptr %6, align 4
  call void @llvm.lifetime.start.p0(i64 4, ptr %7) #9
  call void @llvm.lifetime.start.p0(i64 8, ptr %8) #9
  call void @llvm.lifetime.start.p0(i64 1, ptr %9) #9
  store i32 8, ptr %7, align 4
  store ptr @.str.226, ptr %8, align 8
  %10 = load ptr, ptr %5, align 8
  %11 = load i32, ptr %6, align 4
  %12 = add i32 %11, 6
  %13 = call zeroext i8 @tvb_get_uint8(ptr noundef %10, i32 noundef %12)
  store i8 %13, ptr %9, align 1
  %14 = load ptr, ptr @g_ascii_table, align 8
  %15 = load i8, ptr %9, align 1
  %16 = zext i8 %15 to i64
  %17 = getelementptr i16, ptr %14, i64 %16
  %18 = load i16, ptr %17, align 2
  %19 = zext i16 %18 to i32
  %20 = and i32 %19, 8
  %21 = icmp ne i32 %20, 0
  br i1 %21, label %22, label %36

22:                                               ; preds = %3
  %23 = load ptr, ptr %4, align 8
  %24 = load i32, ptr @hf_aprs_mdhm, align 4
  %25 = load ptr, ptr %5, align 8
  %26 = load i32, ptr %6, align 4
  %27 = load i32, ptr %7, align 4
  %28 = call ptr @proto_tree_add_item(ptr noundef %23, i32 noundef %24, ptr noundef %25, i32 noundef %26, i32 noundef %27, i32 noundef 0)
  %29 = load ptr, ptr %4, align 8
  %30 = load i32, ptr @hf_aprs_tz, align 4
  %31 = load ptr, ptr %5, align 8
  %32 = load i32, ptr %6, align 4
  %33 = load i32, ptr %7, align 4
  %34 = load ptr, ptr %8, align 8
  %35 = call ptr @proto_tree_add_string(ptr noundef %29, i32 noundef %30, ptr noundef %31, i32 noundef %32, i32 noundef %33, ptr noundef %34)
  br label %77

36:                                               ; preds = %3
  %37 = load i32, ptr %7, align 4
  %38 = sub i32 %37, 1
  store i32 %38, ptr %7, align 4
  %39 = load i8, ptr %9, align 1
  %40 = zext i8 %39 to i32
  %41 = icmp eq i32 %40, 104
  br i1 %41, label %42, label %56

42:                                               ; preds = %36
  %43 = load ptr, ptr %4, align 8
  %44 = load i32, ptr @hf_aprs_hms, align 4
  %45 = load ptr, ptr %5, align 8
  %46 = load i32, ptr %6, align 4
  %47 = load i32, ptr %7, align 4
  %48 = call ptr @proto_tree_add_item(ptr noundef %43, i32 noundef %44, ptr noundef %45, i32 noundef %46, i32 noundef %47, i32 noundef 0)
  %49 = load ptr, ptr %4, align 8
  %50 = load i32, ptr @hf_aprs_tz, align 4
  %51 = load ptr, ptr %5, align 8
  %52 = load i32, ptr %6, align 4
  %53 = load i32, ptr %7, align 4
  %54 = load ptr, ptr %8, align 8
  %55 = call ptr @proto_tree_add_string(ptr noundef %49, i32 noundef %50, ptr noundef %51, i32 noundef %52, i32 noundef %53, ptr noundef %54)
  br label %76

56:                                               ; preds = %36
  %57 = load i8, ptr %9, align 1
  %58 = zext i8 %57 to i32
  switch i32 %58, label %61 [
    i32 122, label %59
    i32 47, label %60
  ]

59:                                               ; preds = %56
  store ptr @.str.226, ptr %8, align 8
  br label %62

60:                                               ; preds = %56
  store ptr @.str.227, ptr %8, align 8
  br label %62

61:                                               ; preds = %56
  store ptr @.str.228, ptr %8, align 8
  br label %62

62:                                               ; preds = %61, %60, %59
  %63 = load ptr, ptr %4, align 8
  %64 = load i32, ptr @hf_aprs_dhm, align 4
  %65 = load ptr, ptr %5, align 8
  %66 = load i32, ptr %6, align 4
  %67 = load i32, ptr %7, align 4
  %68 = call ptr @proto_tree_add_item(ptr noundef %63, i32 noundef %64, ptr noundef %65, i32 noundef %66, i32 noundef %67, i32 noundef 0)
  %69 = load ptr, ptr %4, align 8
  %70 = load i32, ptr @hf_aprs_tz, align 4
  %71 = load ptr, ptr %5, align 8
  %72 = load i32, ptr %6, align 4
  %73 = add i32 %72, 6
  %74 = load ptr, ptr %8, align 8
  %75 = call ptr @proto_tree_add_string(ptr noundef %69, i32 noundef %70, ptr noundef %71, i32 noundef %73, i32 noundef 1, ptr noundef %74)
  br label %76

76:                                               ; preds = %62, %42
  br label %77

77:                                               ; preds = %76, %22
  %78 = load i32, ptr %6, align 4
  %79 = load i32, ptr %7, align 4
  %80 = add i32 %78, %79
  call void @llvm.lifetime.end.p0(i64 1, ptr %9) #9
  call void @llvm.lifetime.end.p0(i64 8, ptr %8) #9
  call void @llvm.lifetime.end.p0(i64 4, ptr %7) #9
  ret i32 %80
}