; Function Attrs: null_pointer_is_valid sspstrong uwtable
define internal fastcc noundef i32 @aprs_timestamp(ptr noundef %0, ptr noundef %1, i32 noundef %2) unnamed_addr #0 {
  %4 = add i32 %2, 6
  %5 = tail call zeroext i8 @tvb_get_uint8(ptr noundef %1, i32 noundef %4)
  %6 = load ptr, ptr @g_ascii_table, align 8
  %7 = zext i8 %5 to i64
  %8 = getelementptr i16, ptr %6, i64 %7
  %9 = load i16, ptr %8, align 2
  %10 = and i16 %9, 8
  %.not = icmp eq i16 %10, 0
  br i1 %.not, label %16, label %11

11:                                               ; preds = %3
  %12 = load i32, ptr @hf_aprs_mdhm, align 4
  %13 = tail call ptr @proto_tree_add_item(ptr noundef %0, i32 noundef %12, ptr noundef %1, i32 noundef %2, i32 noundef 8, i32 noundef 0)
  %14 = load i32, ptr @hf_aprs_tz, align 4
  %15 = tail call ptr @proto_tree_add_string(ptr noundef %0, i32 noundef %14, ptr noundef %1, i32 noundef %2, i32 noundef 8, ptr noundef nonnull @.str.226)
  br label %29

16:                                               ; preds = %3
  switch i8 %5, label %23 [
    i8 104, label %17
    i8 122, label %24
    i8 47, label %22
  ]

17:                                               ; preds = %16
  %18 = load i32, ptr @hf_aprs_hms, align 4
  %19 = tail call ptr @proto_tree_add_item(ptr noundef %0, i32 noundef %18, ptr noundef %1, i32 noundef %2, i32 noundef 7, i32 noundef 0)
  %20 = load i32, ptr @hf_aprs_tz, align 4
  %21 = tail call ptr @proto_tree_add_string(ptr noundef %0, i32 noundef %20, ptr noundef %1, i32 noundef %2, i32 noundef 7, ptr noundef nonnull @.str.226)
  br label %29

22:                                               ; preds = %16
  br label %24

23:                                               ; preds = %16
  br label %24

24:                                               ; preds = %16, %23, %22
  %.033 = phi ptr [ @.str.228, %23 ], [ @.str.227, %22 ], [ @.str.226, %16 ]
  %25 = load i32, ptr @hf_aprs_dhm, align 4
  %26 = tail call ptr @proto_tree_add_item(ptr noundef %0, i32 noundef %25, ptr noundef %1, i32 noundef %2, i32 noundef 7, i32 noundef 0)
  %27 = load i32, ptr @hf_aprs_tz, align 4
  %28 = tail call ptr @proto_tree_add_string(ptr noundef %0, i32 noundef %27, ptr noundef %1, i32 noundef %4, i32 noundef 1, ptr noundef nonnull %.033)
  br label %29

29:                                               ; preds = %17, %24, %11
  %.0 = phi i32 [ 8, %11 ], [ 7, %17 ], [ 7, %24 ]
  %30 = add i32 %.0, %2
  ret i32 %30
}